; Function Attrs: nounwind uwtable
define range(i32 0, 2) i32 @X509V3_EXT_add_list(ptr noundef %0) local_unnamed_addr #0 {
  %2 = load i32, ptr %0, align 8, !tbaa !10
  %.not7 = icmp eq i32 %2, -1
  br i1 %.not7, label %.loopexit, label %.lr.ph

3:                                                ; preds = %X509V3_EXT_add.exit
  %4 = getelementptr inbounds nuw i8, ptr %.08, i64 104
  %5 = load i32, ptr %4, align 8, !tbaa !10
  %.not = icmp eq i32 %5, -1
  br i1 %.not, label %.loopexit, label %.lr.ph, !llvm.loop !13

.lr.ph:                                           ; preds = %1, %3
  %.08 = phi ptr [ %4, %3 ], [ %0, %1 ]
  %6 = load ptr, ptr @ext_list, align 8, !tbaa !3
  %7 = icmp eq ptr %6, null
  br i1 %7, label %8, label %X509V3_EXT_add.exit

8:                                                ; preds = %.lr.ph
  %9 = tail call ptr @OPENSSL_sk_new(ptr noundef nonnull @ext_cmp) #7
  store ptr %9, ptr @ext_list, align 8, !tbaa !3
  %10 = icmp eq ptr %9, null
  br i1 %10, label %X509V3_EXT_add.exit.thread, label %X509V3_EXT_add.exit

X509V3_EXT_add.exit:                              ; preds = %8, %.lr.ph
  %11 = phi ptr [ %9, %8 ], [ %6, %.lr.ph ]
  %12 = tail call i32 @OPENSSL_sk_push(ptr noundef nonnull %11, ptr noundef nonnull %.08) #7
  %.not.i = icmp eq i32 %12, 0
  br i1 %.not.i, label %X509V3_EXT_add.exit.thread, label %3

X509V3_EXT_add.exit.thread:                       ; preds = %8, %X509V3_EXT_add.exit
  %.sink.i = phi i32 [ 29, %8 ], [ 33, %X509V3_EXT_add.exit ]
  tail call void @ERR_new() #7
  tail call void @ERR_set_debug(ptr noundef nonnull @.str, i32 noundef %.sink.i, ptr noundef nonnull @__func__.X509V3_EXT_add) #7
  tail call void (i32, i32, ptr, ...) @ERR_set_error(i32 noundef 34, i32 noundef 524303, ptr noundef null) #7
  br label %.loopexit

.loopexit:                                        ; preds = %3, %1, %X509V3_EXT_add.exit.thread
  %.03 = phi i32 [ 0, %X509V3_EXT_add.exit.thread ], [ 1, %1 ], [ 1, %3 ]
  ret i32 %.03
}